; Function Attrs: mustprogress nounwind uwtable
define hidden void @_ZN6hermes10BasicBlock5eraseEPNS_11InstructionE(ptr nocapture noundef nonnull readnone align 8 dereferenceable(80) %this, ptr noundef %I) local_unnamed_addr #0 align 2 {
entry:
  %Next.i.i.i.i.i.i.i = getelementptr inbounds i8, ptr %I, i64 8
  %0 = load ptr, ptr %Next.i.i.i.i.i.i.i, align 8
  %1 = load ptr, ptr %I, align 8
  store ptr %1, ptr %0, align 8
  %Next2.i.i.i.i.i.i.i = getelementptr inbounds i8, ptr %1, i64 8
  store ptr %0, ptr %Next2.i.i.i.i.i.i.i, align 8
  tail call void @llvm.memset.p0.i64(ptr noundef nonnull align 8 dereferenceable(16) %I, i8 0, i64 16, i1 false)
  %add.ptr.i.i.i = getelementptr inbounds i8, ptr %I, i64 16
  tail call void @_ZN6hermes5Value7destroyEPS0_(ptr noundef nonnull %add.ptr.i.i.i)
  ret void
}